; Function Attrs: nounwind uwtable
define range(i32 -22, 1) i32 @arkInterpSetDegree_Lagrange(ptr noundef %0, ptr noundef readonly captures(none) %1, i32 noundef %2) #0 {
  %or.cond = icmp ugt i32 %2, 5
  br i1 %or.cond, label %4, label %5

4:                                                ; preds = %3
  tail call void (ptr, i32, i32, ptr, ptr, ptr, ...) @arkProcessError(ptr noundef %0, i32 noundef -40, i32 noundef 1006, ptr noundef nonnull @__func__.arkInterpSetDegree_Lagrange, ptr noundef nonnull @.str.4, ptr noundef nonnull @.str.5) #14
  br label %8

5:                                                ; preds = %3
  %6 = add nuw nsw i32 %2, 1
  %7 = load ptr, ptr %1, align 8, !tbaa !17
  store i32 %6, ptr %7, align 8, !tbaa !49
  br label %8

8:                                                ; preds = %5, %4
  %.0 = phi i32 [ -22, %4 ], [ 0, %5 ]
  ret i32 %.0
}